SF:/mnt/c/Users/Dell/Documents/GitHub/rETL/components/conform/src/lib.rs
FN:88,_RNCNCNCNvCse8yh94iHuID_7conform19profile_df_detailed0s0_00B7_
FN:91,_RNCNCNCNvCse8yh94iHuID_7conform19profile_df_detailed0s0_0s_0B7_
FN:101,_RNCNCNCNvCse8yh94iHuID_7conform19profile_df_detailed0s1_00B7_
FN:104,_RNCNCNCNvCse8yh94iHuID_7conform19profile_df_detailed0s1_0s_0B7_
FN:63,_RNCNCNvCse8yh94iHuID_7conform19profile_df_detailed00B5_
FN:85,_RNCNCNvCse8yh94iHuID_7conform19profile_df_detailed0s0_0B5_
FN:98,_RNCNCNvCse8yh94iHuID_7conform19profile_df_detailed0s1_0B5_
FN:111,_RNCNCNvCse8yh94iHuID_7conform19profile_df_detailed0s2_0B5_
FN:124,_RNCNCNvCse8yh94iHuID_7conform19profile_df_detailed0s3_0B5_
FN:125,_RNCNCNvCse8yh94iHuID_7conform19profile_df_detailed0s4_0B5_
FN:72,_RNCNCNvCse8yh94iHuID_7conform19profile_df_detailed0s_0B5_
FN:40,_RNCNvCse8yh94iHuID_7conform10profile_df0B3_
FN:54,_RNCNvCse8yh94iHuID_7conform19profile_df_detailed0B3_
FN:35,_RNvCse8yh94iHuID_7conform10profile_df
FN:49,_RNvCse8yh94iHuID_7conform19profile_df_detailed
FN:149,_RNvCse8yh94iHuID_7conform22export_profile_to_json
FNDA:0,_RNCNCNCNvCse8yh94iHuID_7conform19profile_df_detailed0s0_00B7_
FNDA:0,_RNCNCNCNvCse8yh94iHuID_7conform19profile_df_detailed0s0_0s_0B7_
FNDA:0,_RNCNCNCNvCse8yh94iHuID_7conform19profile_df_detailed0s1_00B7_
FNDA:0,_RNCNCNCNvCse8yh94iHuID_7conform19profile_df_detailed0s1_0s_0B7_
FNDA:0,_RNCNCNvCse8yh94iHuID_7conform19profile_df_detailed00B5_
FNDA:0,_RNCNCNvCse8yh94iHuID_7conform19profile_df_detailed0s0_0B5_
FNDA:0,_RNCNCNvCse8yh94iHuID_7conform19profile_df_detailed0s1_0B5_
FNDA:0,_RNCNCNvCse8yh94iHuID_7conform19profile_df_detailed0s2_0B5_
FNDA:0,_RNCNCNvCse8yh94iHuID_7conform19profile_df_detailed0s3_0B5_
FNDA:0,_RNCNCNvCse8yh94iHuID_7conform19profile_df_detailed0s4_0B5_
FNDA:0,_RNCNCNvCse8yh94iHuID_7conform19profile_df_detailed0s_0B5_
FNDA:0,_RNCNvCse8yh94iHuID_7conform10profile_df0B3_
FNDA:0,_RNCNvCse8yh94iHuID_7conform19profile_df_detailed0B3_
FNDA:0,_RNvCse8yh94iHuID_7conform10profile_df
FNDA:0,_RNvCse8yh94iHuID_7conform19profile_df_detailed
FNDA:0,_RNvCse8yh94iHuID_7conform22export_profile_to_json
FNF:16
FNH:0
DA:35,0
DA:36,0
DA:37,0
DA:38,0
DA:39,0
DA:40,0
DA:41,0
DA:42,0
DA:43,0
DA:44,0
DA:45,0
DA:46,0
DA:47,0
DA:49,0
DA:50,0
DA:51,0
DA:52,0
DA:53,0
DA:54,0
DA:55,0
DA:56,0
DA:57,0
DA:58,0
DA:59,0
DA:60,0
DA:61,0
DA:62,0
DA:63,0
DA:64,0
DA:65,0
DA:66,0
DA:67,0
DA:68,0
DA:69,0
DA:70,0
DA:71,0
DA:72,0
DA:73,0
DA:74,0
DA:75,0
DA:76,0
DA:77,0
DA:78,0
DA:79,0
DA:80,0
DA:81,0
DA:82,0
DA:83,0
DA:84,0
DA:85,0
DA:86,0
DA:87,0
DA:88,0
DA:89,0
DA:90,0
DA:91,0
DA:92,0
DA:93,0
DA:94,0
DA:95,0
DA:96,0
DA:97,0
DA:98,0
DA:99,0
DA:100,0
DA:101,0
DA:102,0
DA:103,0
DA:104,0
DA:105,0
DA:106,0
DA:107,0
DA:108,0
DA:109,0
DA:110,0
DA:111,0
DA:112,0
DA:113,0
DA:114,0
DA:115,0
DA:116,0
DA:117,0
DA:118,0
DA:119,0
DA:121,0
DA:122,0
DA:123,0
DA:124,0
DA:125,0
DA:126,0
DA:127,0
DA:128,0
DA:129,0
DA:130,0
DA:131,0
DA:133,0
DA:135,0
DA:136,0
DA:137,0
DA:138,0
DA:139,0
DA:140,0
DA:141,0
DA:142,0
DA:143,0
DA:144,0
DA:145,0
DA:146,0
DA:147,0
DA:149,0
DA:150,0
DA:151,0
DA:152,0
DA:153,0
DA:154,0
BRF:0
BRH:0
LF:136
LH:0
end_of_record
SF:/mnt/c/Users/Dell/Documents/GitHub/rETL/components/data-profiler/src/cli.rs
FN:25,_RNCNvXs5_NtCsz2nsoWKH4i_13data_profiler3cliNtB7_9InputArgsNtNtCs3zh3DVK0KN4_12clap_builder6derive14FromArgMatches20from_arg_matches_mut0B9_
FN:28,_RNCNvXs5_NtCsz2nsoWKH4i_13data_profiler3cliNtB7_9InputArgsNtNtCs3zh3DVK0KN4_12clap_builder6derive14FromArgMatches20from_arg_matches_muts_0B9_
FN:25,_RNCNvXs5_NtCsz2nsoWKH4i_13data_profiler3cliNtB7_9InputArgsNtNtCs3zh3DVK0KN4_12clap_builder6derive14FromArgMatches27update_from_arg_matches_mut0B9_
FN:28,_RNCNvXs5_NtCsz2nsoWKH4i_13data_profiler3cliNtB7_9InputArgsNtNtCs3zh3DVK0KN4_12clap_builder6derive14FromArgMatches27update_from_arg_matches_muts_0B9_
FN:34,_RNCNvXsa_NtCsz2nsoWKH4i_13data_profiler3cliNtB7_13TransformArgsNtNtCs3zh3DVK0KN4_12clap_builder6derive14FromArgMatches20from_arg_matches_mut0B9_
FN:34,_RNCNvXsa_NtCsz2nsoWKH4i_13data_profiler3cliNtB7_13TransformArgsNtNtCs3zh3DVK0KN4_12clap_builder6derive14FromArgMatches27update_from_arg_matches_mut0B9_
FN:49,_RNCNvXsf_NtCsz2nsoWKH4i_13data_profiler3cliNtB7_10OutputArgsNtNtCs3zh3DVK0KN4_12clap_builder6derive14FromArgMatches20from_arg_matches_mut0B9_
FN:49,_RNCNvXsf_NtCsz2nsoWKH4i_13data_profiler3cliNtB7_10OutputArgsNtNtCs3zh3DVK0KN4_12clap_builder6derive14FromArgMatches27update_from_arg_matches_mut0B9_
FNDA:0,_RNCNvXs5_NtCsz2nsoWKH4i_13data_profiler3cliNtB7_9InputArgsNtNtCs3zh3DVK0KN4_12clap_builder6derive14FromArgMatches20from_arg_matches_mut0B9_
FNDA:0,_RNCNvXs5_NtCsz2nsoWKH4i_13data_profiler3cliNtB7_9InputArgsNtNtCs3zh3DVK0KN4_12clap_builder6derive14FromArgMatches20from_arg_matches_muts_0B9_
FNDA:0,_RNCNvXs5_NtCsz2nsoWKH4i_13data_profiler3cliNtB7_9InputArgsNtNtCs3zh3DVK0KN4_12clap_builder6derive14FromArgMatches27update_from_arg_matches_mut0B9_
FNDA:0,_RNCNvXs5_NtCsz2nsoWKH4i_13data_profiler3cliNtB7_9InputArgsNtNtCs3zh3DVK0KN4_12clap_builder6derive14FromArgMatches27update_from_arg_matches_muts_0B9_
FNDA:0,_RNCNvXsa_NtCsz2nsoWKH4i_13data_profiler3cliNtB7_13TransformArgsNtNtCs3zh3DVK0KN4_12clap_builder6derive14FromArgMatches20from_arg_matches_mut0B9_
FNDA:0,_RNCNvXsa_NtCsz2nsoWKH4i_13data_profiler3cliNtB7_13TransformArgsNtNtCs3zh3DVK0KN4_12clap_builder6derive14FromArgMatches27update_from_arg_matches_mut0B9_
FNDA:0,_RNCNvXsf_NtCsz2nsoWKH4i_13data_profiler3cliNtB7_10OutputArgsNtNtCs3zh3DVK0KN4_12clap_builder6derive14FromArgMatches20from_arg_matches_mut0B9_
FNDA:0,_RNCNvXsf_NtCsz2nsoWKH4i_13data_profiler3cliNtB7_10OutputArgsNtNtCs3zh3DVK0KN4_12clap_builder6derive14FromArgMatches27update_from_arg_matches_mut0B9_
FNF:4
FNH:0
DA:25,0
DA:28,0
DA:34,0
DA:49,0
BRF:0
BRH:0
LF:4
LH:0
end_of_record
SF:/mnt/c/Users/Dell/Documents/GitHub/rETL/components/data-profiler/src/main.rs
FN:48,_RNCNvCsz2nsoWKH4i_13data_profiler4main0B3_
FN:64,_RNCNvCsz2nsoWKH4i_13data_profiler4mains0_0B3_
FN:56,_RNCNvCsz2nsoWKH4i_13data_profiler4mains_0B3_
FN:9,_RNvCsz2nsoWKH4i_13data_profiler4main
FNDA:0,_RNCNvCsz2nsoWKH4i_13data_profiler4main0B3_
FNDA:0,_RNCNvCsz2nsoWKH4i_13data_profiler4mains0_0B3_
FNDA:0,_RNCNvCsz2nsoWKH4i_13data_profiler4mains_0B3_
FNDA:0,_RNvCsz2nsoWKH4i_13data_profiler4main
FNF:4
FNH:0
DA:9,0
DA:10,0
DA:12,0
DA:13,0
DA:14,0
DA:15,0
DA:16,0
DA:18,0
DA:19,0
DA:20,0
DA:21,0
DA:29,0
DA:30,0
DA:31,0
DA:32,0
DA:33,0
DA:34,0
DA:35,0
DA:36,0
DA:37,0
DA:38,0
DA:42,0
DA:43,0
DA:44,0
DA:45,0
DA:46,0
DA:47,0
DA:48,0
DA:49,0
DA:50,0
DA:51,0
DA:52,0
DA:53,0
DA:54,0
DA:55,0
DA:56,0
DA:57,0
DA:58,0
DA:59,0
DA:60,0
DA:61,0
DA:62,0
DA:63,0
DA:64,0
DA:65,0
DA:66,0
DA:68,0
DA:69,0
DA:70,0
DA:71,0
DA:74,0
DA:75,0
BRF:0
BRH:0
LF:55
LH:0
end_of_record
SF:/mnt/c/Users/Dell/Documents/GitHub/rETL/components/extract/src/lib.rs
FN:24,_RNvCsgA0LHNxvR4h_7extract11extract_txt
FN:5,_RNvCsgA0LHNxvR4h_7extract3add
FN:40,_RNvNtCsgA0LHNxvR4h_7extract5testss_16test_extract_txt
FN:34,_RNvNtCsgA0LHNxvR4h_7extract5testss_8it_works
FN:9,_RNvCsgA0LHNxvR4h_7extract11extract_csv
FN:14,_RNvCsgA0LHNxvR4h_7extract12extract_json
FN:19,_RNvCsgA0LHNxvR4h_7extract15extract_parquet
FNDA:1,_RNvCsgA0LHNxvR4h_7extract11extract_txt
FNDA:1,_RNvCsgA0LHNxvR4h_7extract3add
FNDA:1,_RNvNtCsgA0LHNxvR4h_7extract5testss_16test_extract_txt
FNDA:1,_RNvNtCsgA0LHNxvR4h_7extract5testss_8it_works
FNDA:0,_RNvCsgA0LHNxvR4h_7extract11extract_csv
FNDA:0,_RNvCsgA0LHNxvR4h_7extract12extract_json
FNDA:0,_RNvCsgA0LHNxvR4h_7extract15extract_parquet
FNF:7
FNH:4
DA:5,1
DA:6,1
DA:7,1
DA:9,0
DA:10,0
DA:11,0
DA:12,0
DA:14,0
DA:15,0
DA:16,0
DA:17,0
DA:19,0
DA:20,0
DA:21,0
DA:22,0
DA:24,1
DA:25,1
DA:26,0
DA:27,1
DA:34,1
DA:35,1
DA:36,1
DA:37,1
DA:40,1
DA:41,1
DA:42,1
DA:43,1
DA:44,1
BRF:0
BRH:0
LF:28
LH:15
end_of_record
SF:/mnt/c/Users/Dell/Documents/GitHub/rETL/components/load/src/lib.rs
FN:42,_RNvNtCsjZPvEqyO36g_4load5testss_14test_load_json
FN:36,_RNvNtCsjZPvEqyO36g_4load5testss_8it_works
FN:5,_RNvCsjZPvEqyO36g_4load3add
FN:24,_RNvCsjZPvEqyO36g_4load9load_json
FN:20,_RNCNvCsjZPvEqyO36g_4load12load_parquet0B3_
FN:16,_RNvCsjZPvEqyO36g_4load12load_parquet
FN:9,_RNvCsjZPvEqyO36g_4load8load_csv
FNDA:1,_RNvNtCsjZPvEqyO36g_4load5testss_14test_load_json
FNDA:1,_RNvNtCsjZPvEqyO36g_4load5testss_8it_works
FNDA:1,_RNvCsjZPvEqyO36g_4load3add
FNDA:1,_RNvCsjZPvEqyO36g_4load9load_json
FNDA:0,_RNCNvCsjZPvEqyO36g_4load12load_parquet0B3_
FNDA:0,_RNvCsjZPvEqyO36g_4load12load_parquet
FNDA:0,_RNvCsjZPvEqyO36g_4load8load_csv
FNF:7
FNH:4
DA:5,1
DA:6,1
DA:7,1
DA:9,0
DA:10,0
DA:11,0
DA:12,0
DA:13,0
DA:14,0
DA:16,0
DA:17,0
DA:18,0
DA:19,0
DA:20,0
DA:21,0
DA:22,0
DA:24,1
DA:25,1
DA:26,1
DA:27,1
DA:28,1
DA:29,1
DA:36,1
DA:37,1
DA:38,1
DA:39,1
DA:42,1
DA:44,1
DA:45,1
DA:46,1
DA:47,1
DA:48,1
DA:49,1
BRF:0
BRH:0
LF:34
LH:20
end_of_record
SF:/mnt/c/Users/Dell/Documents/GitHub/rETL/components/transform/src/lib.rs
FN:29,_RNvNtCslynzrWKG4mN_9transform5testss_34test_select_columns_and_limit_rows
FN:23,_RNvNtCslynzrWKG4mN_9transform5testss_8it_works
FN:9,_RNCNvCslynzrWKG4mN_9transform14select_columns0B3_
FN:14,_RNvCslynzrWKG4mN_9transform10limit_rows
FN:8,_RNvCslynzrWKG4mN_9transform14select_columns
FN:4,_RNvCslynzrWKG4mN_9transform3add
FNDA:1,_RNvNtCslynzrWKG4mN_9transform5testss_34test_select_columns_and_limit_rows
FNDA:1,_RNvNtCslynzrWKG4mN_9transform5testss_8it_works
FNDA:1,_RNCNvCslynzrWKG4mN_9transform14select_columns0B3_
FNDA:1,_RNvCslynzrWKG4mN_9transform10limit_rows
FNDA:1,_RNvCslynzrWKG4mN_9transform14select_columns
FNDA:1,_RNvCslynzrWKG4mN_9transform3add
FNF:6
FNH:6
DA:4,1
DA:5,1
DA:6,1
DA:8,1
DA:9,1
DA:10,1
DA:11,1
DA:12,1
DA:14,1
DA:15,1
DA:16,1
DA:23,1
DA:24,1
DA:25,1
DA:26,1
DA:29,1
DA:31,1
DA:32,1
DA:33,1
DA:34,1
DA:35,1
DA:36,1
DA:37,1
BRF:0
BRH:0
LF:24
LH:24
end_of_record