SF:/mnt/c/Users/Dell/Documents/GitHub/rETL/components/conform/src/lib.rs
FN:88,_RNCNCNCNvCs7FTGLIhkjRr_7conform19profile_df_detailed0s0_00B7_
FN:91,_RNCNCNCNvCs7FTGLIhkjRr_7conform19profile_df_detailed0s0_0s_0B7_
FN:101,_RNCNCNCNvCs7FTGLIhkjRr_7conform19profile_df_detailed0s1_00B7_
FN:104,_RNCNCNCNvCs7FTGLIhkjRr_7conform19profile_df_detailed0s1_0s_0B7_
FN:63,_RNCNCNvCs7FTGLIhkjRr_7conform19profile_df_detailed00B5_
FN:85,_RNCNCNvCs7FTGLIhkjRr_7conform19profile_df_detailed0s0_0B5_
FN:98,_RNCNCNvCs7FTGLIhkjRr_7conform19profile_df_detailed0s1_0B5_
FN:111,_RNCNCNvCs7FTGLIhkjRr_7conform19profile_df_detailed0s2_0B5_
FN:124,_RNCNCNvCs7FTGLIhkjRr_7conform19profile_df_detailed0s3_0B5_
FN:125,_RNCNCNvCs7FTGLIhkjRr_7conform19profile_df_detailed0s4_0B5_
FN:72,_RNCNCNvCs7FTGLIhkjRr_7conform19profile_df_detailed0s_0B5_
FN:40,_RNCNvCs7FTGLIhkjRr_7conform10profile_df0B3_
FN:54,_RNCNvCs7FTGLIhkjRr_7conform19profile_df_detailed0B3_
FN:35,_RNvCs7FTGLIhkjRr_7conform10profile_df
FN:49,_RNvCs7FTGLIhkjRr_7conform19profile_df_detailed
FN:149,_RNvCs7FTGLIhkjRr_7conform22export_profile_to_json
FNDA:0,_RNCNCNCNvCs7FTGLIhkjRr_7conform19profile_df_detailed0s0_00B7_
FNDA:0,_RNCNCNCNvCs7FTGLIhkjRr_7conform19profile_df_detailed0s0_0s_0B7_
FNDA:0,_RNCNCNCNvCs7FTGLIhkjRr_7conform19profile_df_detailed0s1_00B7_
FNDA:0,_RNCNCNCNvCs7FTGLIhkjRr_7conform19profile_df_detailed0s1_0s_0B7_
FNDA:0,_RNCNCNvCs7FTGLIhkjRr_7conform19profile_df_detailed00B5_
FNDA:0,_RNCNCNvCs7FTGLIhkjRr_7conform19profile_df_detailed0s0_0B5_
FNDA:0,_RNCNCNvCs7FTGLIhkjRr_7conform19profile_df_detailed0s1_0B5_
FNDA:0,_RNCNCNvCs7FTGLIhkjRr_7conform19profile_df_detailed0s2_0B5_
FNDA:0,_RNCNCNvCs7FTGLIhkjRr_7conform19profile_df_detailed0s3_0B5_
FNDA:0,_RNCNCNvCs7FTGLIhkjRr_7conform19profile_df_detailed0s4_0B5_
FNDA:0,_RNCNCNvCs7FTGLIhkjRr_7conform19profile_df_detailed0s_0B5_
FNDA:0,_RNCNvCs7FTGLIhkjRr_7conform10profile_df0B3_
FNDA:0,_RNCNvCs7FTGLIhkjRr_7conform19profile_df_detailed0B3_
FNDA:0,_RNvCs7FTGLIhkjRr_7conform10profile_df
FNDA:0,_RNvCs7FTGLIhkjRr_7conform19profile_df_detailed
FNDA:0,_RNvCs7FTGLIhkjRr_7conform22export_profile_to_json
FNF:16
FNH:0
DA:35,0
DA:36,0
DA:37,0
DA:38,0
DA:39,0
DA:40,0
DA:41,0
DA:42,0
DA:43,0
DA:44,0
DA:45,0
DA:46,0
DA:47,0
DA:49,0
DA:50,0
DA:51,0
DA:52,0
DA:53,0
DA:54,0
DA:55,0
DA:56,0
DA:57,0
DA:58,0
DA:59,0
DA:60,0
DA:61,0
DA:62,0
DA:63,0
DA:64,0
DA:65,0
DA:66,0
DA:67,0
DA:68,0
DA:69,0
DA:70,0
DA:71,0
DA:72,0
DA:73,0
DA:74,0
DA:75,0
DA:76,0
DA:77,0
DA:78,0
DA:79,0
DA:80,0
DA:81,0
DA:82,0
DA:83,0
DA:84,0
DA:85,0
DA:86,0
DA:87,0
DA:88,0
DA:89,0
DA:90,0
DA:91,0
DA:92,0
DA:93,0
DA:94,0
DA:95,0
DA:96,0
DA:97,0
DA:98,0
DA:99,0
DA:100,0
DA:101,0
DA:102,0
DA:103,0
DA:104,0
DA:105,0
DA:106,0
DA:107,0
DA:108,0
DA:109,0
DA:110,0
DA:111,0
DA:112,0
DA:113,0
DA:114,0
DA:115,0
DA:116,0
DA:117,0
DA:118,0
DA:119,0
DA:121,0
DA:122,0
DA:123,0
DA:124,0
DA:125,0
DA:126,0
DA:127,0
DA:128,0
DA:129,0
DA:130,0
DA:131,0
DA:133,0
DA:135,0
DA:136,0
DA:137,0
DA:138,0
DA:139,0
DA:140,0
DA:141,0
DA:142,0
DA:143,0
DA:144,0
DA:145,0
DA:146,0
DA:147,0
DA:149,0
DA:150,0
DA:151,0
DA:152,0
DA:153,0
DA:154,0
BRF:0
BRH:0
LF:136
LH:0
end_of_record