SF:/mnt/c/Users/Dell/Documents/GitHub/rETL/components/extract/src/lib.rs
FN:94,_RNvNtCs9ep2cYb8hd8_7extract5testss_21test_extract_csv_lazy
FN:119,_RNvNtCs9ep2cYb8hd8_7extract5testss_22test_extract_json_lazy
FN:106,_RNvNtCs9ep2cYb8hd8_7extract5testss_22test_extract_text_lazy
FN:131,_RNvNtCs9ep2cYb8hd8_7extract5testss_25test_extract_parquet_lazy
FN:11,_RNCNvCs9ep2cYb8hd8_7extract16extract_csv_lazy0B3_
FN:14,_RNCNvCs9ep2cYb8hd8_7extract16extract_csv_lazys_0B3_
FN:62,_RNCNvCs9ep2cYb8hd8_7extract17extract_json_lazy0B3_
FN:65,_RNCNvCs9ep2cYb8hd8_7extract17extract_json_lazys_0B3_
FN:48,_RNCNvCs9ep2cYb8hd8_7extract17extract_text_lazy0B3_
FN:51,_RNCNvCs9ep2cYb8hd8_7extract17extract_text_lazys_0B3_
FN:75,_RNCNvCs9ep2cYb8hd8_7extract20extract_parquet_lazy0B3_
FN:78,_RNCNvCs9ep2cYb8hd8_7extract20extract_parquet_lazys_0B3_
FN:85,_RNvCs9ep2cYb8hd8_7extract12init_logging
FN:6,_RNvCs9ep2cYb8hd8_7extract16extract_csv_lazy
FN:58,_RNvCs9ep2cYb8hd8_7extract17extract_json_lazy
FN:21,_RNvCs9ep2cYb8hd8_7extract17extract_text_lazy
FN:72,_RNvCs9ep2cYb8hd8_7extract20extract_parquet_lazy
FNDA:1,_RNvNtCs9ep2cYb8hd8_7extract5testss_21test_extract_csv_lazy
FNDA:1,_RNvNtCs9ep2cYb8hd8_7extract5testss_22test_extract_json_lazy
FNDA:1,_RNvNtCs9ep2cYb8hd8_7extract5testss_22test_extract_text_lazy
FNDA:1,_RNvNtCs9ep2cYb8hd8_7extract5testss_25test_extract_parquet_lazy
FNDA:1,_RNCNvCs9ep2cYb8hd8_7extract16extract_csv_lazy0B3_
FNDA:0,_RNCNvCs9ep2cYb8hd8_7extract16extract_csv_lazys_0B3_
FNDA:1,_RNCNvCs9ep2cYb8hd8_7extract17extract_json_lazy0B3_
FNDA:0,_RNCNvCs9ep2cYb8hd8_7extract17extract_json_lazys_0B3_
FNDA:1,_RNCNvCs9ep2cYb8hd8_7extract17extract_text_lazy0B3_
FNDA:0,_RNCNvCs9ep2cYb8hd8_7extract17extract_text_lazys_0B3_
FNDA:1,_RNCNvCs9ep2cYb8hd8_7extract20extract_parquet_lazy0B3_
FNDA:0,_RNCNvCs9ep2cYb8hd8_7extract20extract_parquet_lazys_0B3_
FNDA:4,_RNvCs9ep2cYb8hd8_7extract12init_logging
FNDA:1,_RNvCs9ep2cYb8hd8_7extract16extract_csv_lazy
FNDA:1,_RNvCs9ep2cYb8hd8_7extract17extract_json_lazy
FNDA:1,_RNvCs9ep2cYb8hd8_7extract17extract_text_lazy
FNDA:1,_RNvCs9ep2cYb8hd8_7extract20extract_parquet_lazy
FNF:17
FNH:13
DA:6,1
DA:7,1
DA:8,1
DA:9,1
DA:10,1
DA:11,1
DA:12,1
DA:13,1
DA:14,1
DA:15,0
DA:16,0
DA:17,1
DA:18,1
DA:21,1
DA:22,1
DA:23,1
DA:24,1
DA:25,1
DA:26,1
DA:27,1
DA:28,1
DA:29,1
DA:30,1
DA:31,1
DA:32,1
DA:33,1
DA:34,1
DA:36,1
DA:37,0
DA:38,1
DA:39,1
DA:40,0
DA:41,1
DA:42,1
DA:43,0
DA:44,1
DA:46,1
DA:47,1
DA:48,1
DA:49,1
DA:50,1
DA:51,1
DA:52,0
DA:53,0
DA:54,1
DA:55,1
DA:58,1
DA:59,1
DA:60,1
DA:61,1
DA:62,1
DA:63,1
DA:64,1
DA:65,1
DA:66,0
DA:67,0
DA:68,1
DA:69,1
DA:72,1
DA:73,1
DA:74,1
DA:75,1
DA:76,1
DA:77,1
DA:78,1
DA:79,0
DA:80,0
DA:81,1
DA:82,1
DA:85,4
DA:86,4
DA:87,4
DA:94,1
DA:95,1
DA:96,1
DA:97,1
DA:98,1
DA:99,1
DA:100,0
DA:101,0
DA:103,1
DA:106,1
DA:107,1
DA:108,1
DA:109,1
DA:110,1
DA:111,1
DA:112,1
DA:113,0
DA:114,0
DA:116,1
DA:119,1
DA:120,1
DA:121,1
DA:122,1
DA:123,1
DA:124,1
DA:125,0
DA:126,0
DA:128,1
DA:131,1
DA:132,1
DA:133,1
DA:134,1
DA:135,1
DA:136,1
DA:137,0
DA:138,0
DA:140,1
BRF:0
BRH:0
LF:125
LH:98
end_of_record